ccopy_reg
_reconstructor
p0
(cgoogle.oauth2.credentials
Credentials
p1
c__builtin__
object
p2
Ntp3
Rp4
(dp5
S'_token_uri'
p6
Vhttps://oauth2.googleapis.com/token
p7
sS'_client_secret'
p8
VdOgN5CJrNnkw1gB4nNu_u-Pk
p9
sS'_id_token'
p10
NsS'token'
p11
Vya29.GltCB69g0Dx49XBT6jQtiJFGFVAZ7OziQr93Jm1FCsbUPChmaNgtB65yHCuxHEIn0Gqdej5Z8Y45j-IaQnEvKq0w_WI-4X6ULjRCOMNvja2yHHZ5S72SXdzeQLb3
p12
sS'_refresh_token'
p13
V1/4ZEBgZ7bTZSxh4012eLHsRIn6fkIa0gGne1hFRoJvPk
p14
sS'_scopes'
p15
(lp16
S'https://www.googleapis.com/auth/calendar.readonly'
p17
asS'_client_id'
p18
V439545151318-mmekfstfvaui6j4om2hhkkcp59m0ou8e.apps.googleusercontent.com
p19
sS'expiry'
p20
cdatetime
datetime
p21
(S'\x07\xe3\x07\x0b\x11\x1e\x02\x07\xaa}'
p22
tp23
Rp24
sb.